target datalayout = "e-m:e-p270:32:32-p271:32:32-p272:64:64-i64:64-i128:128-f80:128-n8:16:32:64-S128"
target triple = "x86_64-pc-linux-gnu"

%struct.Vec_Int_t_ = type { i32, i32, ptr }
%struct.Abc_Ntk_t_ = type { i32, i32, ptr, ptr, ptr, ptr, ptr, ptr, ptr, ptr, ptr, ptr, ptr, [11 x i32], i32, i32, i32, i32, ptr, i32, ptr, ptr, i32, i32, i32, double, i32, %struct.Vec_Int_t_, ptr, ptr, ptr, ptr, ptr, float, i32, ptr, ptr, ptr, ptr, ptr, ptr, ptr, ptr, ptr, ptr, ptr, ptr, ptr, ptr, ptr, ptr, ptr, ptr, ptr, ptr, ptr }
%struct.Aig_Man_t_ = type { ptr, ptr, ptr, ptr, ptr, ptr, ptr, %struct.Aig_Obj_t_, i32, i32, i32, i32, i32, i32, [7 x i32], i32, ptr, i32, ptr, i32, ptr, i32, i32, i32, ptr, i32, i32, i32, i32, i32, ptr, ptr, i32, ptr, ptr, i32, ptr, ptr, i32, i32, i32, ptr, ptr, ptr, ptr, ptr, ptr, ptr, ptr, ptr, ptr, ptr, ptr, ptr, ptr, i32, ptr, ptr, ptr, ptr, i32, i64, i64, i64, ptr, ptr }
%struct.Aig_Obj_t_ = type { %union.anon, ptr, ptr, i64, i32, i32, %union.anon.0 }
%union.anon = type { ptr }
%union.anon.0 = type { ptr }

; Function Attrs: nounwind uwtable
define ptr @Abc_NtkDarUnfold(ptr noundef %0, i32 noundef %1, i32 noundef %2, i32 noundef %3, i32 noundef %4, i32 noundef %5, i32 noundef %6) #0 {
  %8 = alloca ptr, align 8
  %9 = alloca ptr, align 8
  %10 = alloca i32, align 4
  %11 = alloca i32, align 4
  %12 = alloca i32, align 4
  %13 = alloca i32, align 4
  %14 = alloca i32, align 4
  %15 = alloca i32, align 4
  %16 = alloca ptr, align 8
  %17 = alloca ptr, align 8
  %18 = alloca ptr, align 8
  store ptr %0, ptr %9, align 8
  store i32 %1, ptr %10, align 4
  store i32 %2, ptr %11, align 4
  store i32 %3, ptr %12, align 4
  store i32 %4, ptr %13, align 4
  store i32 %5, ptr %14, align 4
  store i32 %6, ptr %15, align 4
  %19 = load ptr, ptr %9, align 8
  %20 = call ptr @Abc_NtkToDar(ptr noundef %19, i32 noundef 0, i32 noundef 1)
  store ptr %20, ptr %17, align 8
  %21 = load ptr, ptr %17, align 8
  %22 = icmp eq ptr %21, null
  br i1 %22, label %23, label %24

23:                                               ; preds = %7
  store ptr null, ptr %8, align 8
  br label %60

24:                                               ; preds = %7
  %25 = load i32, ptr %13, align 4
  %26 = icmp ne i32 %25, 0
  br i1 %26, label %27, label %30

27:                                               ; preds = %24
  %28 = load ptr, ptr %17, align 8
  store ptr %28, ptr %18, align 8
  %29 = call ptr @Saig_ManDupUnfoldConstrs(ptr noundef %28)
  store ptr %29, ptr %17, align 8
  br label %38

30:                                               ; preds = %24
  %31 = load ptr, ptr %17, align 8
  store ptr %31, ptr %18, align 8
  %32 = load i32, ptr %10, align 4
  %33 = load i32, ptr %11, align 4
  %34 = load i32, ptr %12, align 4
  %35 = load i32, ptr %14, align 4
  %36 = load i32, ptr %15, align 4
  %37 = call ptr @Saig_ManDupUnfoldConstrsFunc(ptr noundef %31, i32 noundef %32, i32 noundef %33, i32 noundef %34, i32 noundef %35, i32 noundef %36)
  store ptr %37, ptr %17, align 8
  br label %38

38:                                               ; preds = %30, %27
  %39 = load ptr, ptr %18, align 8
  call void @Aig_ManStop(ptr noundef %39)
  %40 = load ptr, ptr %17, align 8
  %41 = icmp eq ptr %40, null
  br i1 %41, label %42, label %43

42:                                               ; preds = %38
  store ptr null, ptr %8, align 8
  br label %60

43:                                               ; preds = %38
  %44 = load ptr, ptr %17, align 8
  %45 = call ptr @Abc_NtkFromAigPhase(ptr noundef %44)
  store ptr %45, ptr %16, align 8
  %46 = load ptr, ptr %17, align 8
  %47 = getelementptr inbounds %struct.Aig_Man_t_, ptr %46, i32 0, i32 0
  %48 = load ptr, ptr %47, align 8
  %49 = call ptr @Extra_UtilStrsav(ptr noundef %48)
  %50 = load ptr, ptr %16, align 8
  %51 = getelementptr inbounds %struct.Abc_Ntk_t_, ptr %50, i32 0, i32 2
  store ptr %49, ptr %51, align 8
  %52 = load ptr, ptr %17, align 8
  %53 = getelementptr inbounds %struct.Aig_Man_t_, ptr %52, i32 0, i32 1
  %54 = load ptr, ptr %53, align 8
  %55 = call ptr @Extra_UtilStrsav(ptr noundef %54)
  %56 = load ptr, ptr %16, align 8
  %57 = getelementptr inbounds %struct.Abc_Ntk_t_, ptr %56, i32 0, i32 3
  store ptr %55, ptr %57, align 8
  %58 = load ptr, ptr %17, align 8
  call void @Aig_ManStop(ptr noundef %58)
  %59 = load ptr, ptr %16, align 8
  store ptr %59, ptr %8, align 8
  br label %60

60:                                               ; preds = %43, %42, %23
  %61 = load ptr, ptr %8, align 8
  ret ptr %61
}