; Function Attrs: nounwind uwtable
define noundef ptr @Abc_NtkDarUnfold(ptr noundef %0, i32 noundef %1, i32 noundef %2, i32 noundef %3, i32 noundef %4, i32 noundef %5, i32 noundef %6) local_unnamed_addr #1 {
  %8 = tail call ptr @Abc_NtkToDar(ptr noundef %0, i32 noundef 0, i32 noundef 1)
  %9 = icmp eq ptr %8, null
  br i1 %9, label %26, label %10

10:                                               ; preds = %7
  %.not = icmp eq i32 %4, 0
  br i1 %.not, label %13, label %11

11:                                               ; preds = %10
  %12 = tail call ptr @Saig_ManDupUnfoldConstrs(ptr noundef nonnull %8) #19
  br label %15

13:                                               ; preds = %10
  %14 = tail call ptr @Saig_ManDupUnfoldConstrsFunc(ptr noundef nonnull %8, i32 noundef %1, i32 noundef %2, i32 noundef %3, i32 noundef %5, i32 noundef %6) #19
  br label %15

15:                                               ; preds = %13, %11
  %.019 = phi ptr [ %12, %11 ], [ %14, %13 ]
  tail call void @Aig_ManStop(ptr noundef nonnull %8) #19
  %16 = icmp eq ptr %.019, null
  br i1 %16, label %26, label %17

17:                                               ; preds = %15
  %18 = tail call ptr @Abc_NtkFromAigPhase(ptr noundef nonnull %.019)
  %19 = load ptr, ptr %.019, align 8
  %20 = tail call ptr @Extra_UtilStrsav(ptr noundef %19) #19
  %21 = getelementptr inbounds nuw i8, ptr %18, i64 8
  store ptr %20, ptr %21, align 8
  %22 = getelementptr inbounds nuw i8, ptr %.019, i64 8
  %23 = load ptr, ptr %22, align 8
  %24 = tail call ptr @Extra_UtilStrsav(ptr noundef %23) #19
  %25 = getelementptr inbounds nuw i8, ptr %18, i64 16
  store ptr %24, ptr %25, align 8
  tail call void @Aig_ManStop(ptr noundef nonnull %.019) #19
  br label %26

26:                                               ; preds = %15, %7, %17
  %.020 = phi ptr [ %18, %17 ], [ null, %7 ], [ null, %15 ]
  ret ptr %.020
}